target datalayout = "e-m:e-p270:32:32-p271:32:32-p272:64:64-i64:64-i128:128-f80:128-n8:16:32:64-S128"
target triple = "x86_64-pc-linux-gnu"

%struct.myobj_ex_data_st = type { ptr, i32, i32 }

@gbl_result = internal global i32 0, align 4
@.str.1 = private unnamed_addr constant [29 x i8] c"../openssl/test/exdatatest.c\00", align 1
@saved_argl = internal global i64 0, align 8
@saved_argp = internal global ptr null, align 8
@saved_idx2 = internal global i32 0, align 4
@saved_idx3 = internal global i32 0, align 4
@.str.17 = private unnamed_addr constant [5 x i8] c"argl\00", align 1
@.str.18 = private unnamed_addr constant [11 x i8] c"saved_argl\00", align 1
@.str.19 = private unnamed_addr constant [5 x i8] c"argp\00", align 1
@.str.20 = private unnamed_addr constant [11 x i8] c"saved_argp\00", align 1
@.str.22 = private unnamed_addr constant [7 x i8] c"from_d\00", align 1
@.str.23 = private unnamed_addr constant [39 x i8] c"idx == saved_idx2 || idx == saved_idx3\00", align 1
@.str.25 = private unnamed_addr constant [16 x i8] c"*update_ex_data\00", align 1
@.str.26 = private unnamed_addr constant [38 x i8] c"ex_data = CRYPTO_get_ex_data(to, idx)\00", align 1
@.str.27 = private unnamed_addr constant [13 x i8] c"ex_data->new\00", align 1

; Function Attrs: nounwind uwtable
define internal i32 @exdup2(ptr noundef %0, ptr noundef %1, ptr noundef %2, i32 noundef %3, i64 noundef %4, ptr noundef %5) #0 {
  %7 = alloca ptr, align 8
  %8 = alloca ptr, align 8
  %9 = alloca ptr, align 8
  %10 = alloca i32, align 4
  %11 = alloca i64, align 8
  %12 = alloca ptr, align 8
  %13 = alloca ptr, align 8
  %14 = alloca ptr, align 8
  store ptr %0, ptr %7, align 8, !tbaa !25
  store ptr %1, ptr %8, align 8, !tbaa !25
  store ptr %2, ptr %9, align 8, !tbaa !17
  store i32 %3, ptr %10, align 4, !tbaa !11
  store i64 %4, ptr %11, align 8, !tbaa !15
  store ptr %5, ptr %12, align 8, !tbaa !17
  call void @llvm.lifetime.start.p0(i64 8, ptr %13) #3
  %15 = load ptr, ptr %9, align 8, !tbaa !17
  store ptr %15, ptr %13, align 8, !tbaa !28
  call void @llvm.lifetime.start.p0(i64 8, ptr %14) #3
  store ptr null, ptr %14, align 8, !tbaa !9
  %16 = load i32, ptr %10, align 4, !tbaa !11
  %17 = load i32, ptr @saved_idx2, align 4, !tbaa !11
  %18 = icmp eq i32 %16, %17
  br i1 %18, label %23, label %19

19:                                               ; preds = %6
  %20 = load i32, ptr %10, align 4, !tbaa !11
  %21 = load i32, ptr @saved_idx3, align 4, !tbaa !11
  %22 = icmp eq i32 %20, %21
  br label %23

23:                                               ; preds = %19, %6
  %24 = phi i1 [ true, %6 ], [ %22, %19 ]
  %25 = zext i1 %24 to i32
  %26 = icmp ne i32 %25, 0
  %27 = zext i1 %26 to i32
  %28 = call i32 @test_true(ptr noundef @.str.1, i32 noundef 95, ptr noundef @.str.23, i32 noundef %27)
  %29 = icmp ne i32 %28, 0
  br i1 %29, label %30, label %63

30:                                               ; preds = %23
  %31 = load i64, ptr %11, align 8, !tbaa !15
  %32 = load i64, ptr @saved_argl, align 8, !tbaa !15
  %33 = call i32 @test_long_eq(ptr noundef @.str.1, i32 noundef 96, ptr noundef @.str.17, ptr noundef @.str.18, i64 noundef %31, i64 noundef %32)
  %34 = icmp ne i32 %33, 0
  br i1 %34, label %35, label %63

35:                                               ; preds = %30
  %36 = load ptr, ptr %12, align 8, !tbaa !17
  %37 = load ptr, ptr @saved_argp, align 8, !tbaa !17
  %38 = call i32 @test_ptr_eq(ptr noundef @.str.1, i32 noundef 97, ptr noundef @.str.19, ptr noundef @.str.20, ptr noundef %36, ptr noundef %37)
  %39 = icmp ne i32 %38, 0
  br i1 %39, label %40, label %63

40:                                               ; preds = %35
  %41 = load ptr, ptr %9, align 8, !tbaa !17
  %42 = call i32 @test_ptr(ptr noundef @.str.1, i32 noundef 98, ptr noundef @.str.22, ptr noundef %41)
  %43 = icmp ne i32 %42, 0
  br i1 %43, label %44, label %63

44:                                               ; preds = %40
  %45 = load ptr, ptr %13, align 8, !tbaa !28
  %46 = load ptr, ptr %45, align 8, !tbaa !9
  %47 = call i32 @test_ptr(ptr noundef @.str.1, i32 noundef 99, ptr noundef @.str.25, ptr noundef %46)
  %48 = icmp ne i32 %47, 0
  br i1 %48, label %49, label %63

49:                                               ; preds = %44
  %50 = load ptr, ptr %7, align 8, !tbaa !25
  %51 = load i32, ptr %10, align 4, !tbaa !11
  %52 = call ptr @CRYPTO_get_ex_data(ptr noundef %50, i32 noundef %51)
  store ptr %52, ptr %14, align 8, !tbaa !9
  %53 = call i32 @test_ptr(ptr noundef @.str.1, i32 noundef 100, ptr noundef @.str.26, ptr noundef %52)
  %54 = icmp ne i32 %53, 0
  br i1 %54, label %55, label %63

55:                                               ; preds = %49
  %56 = load ptr, ptr %14, align 8, !tbaa !9
  %57 = getelementptr inbounds nuw %struct.myobj_ex_data_st, ptr %56, i32 0, i32 1
  %58 = load i32, ptr %57, align 8, !tbaa !27
  %59 = icmp ne i32 %58, 0
  %60 = zext i1 %59 to i32
  %61 = call i32 @test_true(ptr noundef @.str.1, i32 noundef 101, ptr noundef @.str.27, i32 noundef %60)
  %62 = icmp ne i32 %61, 0
  br i1 %62, label %64, label %63

63:                                               ; preds = %55, %49, %44, %40, %35, %30, %23
  store i32 0, ptr @gbl_result, align 4, !tbaa !11
  br label %75

64:                                               ; preds = %55
  %65 = load ptr, ptr %13, align 8, !tbaa !28
  %66 = load ptr, ptr %65, align 8, !tbaa !9
  %67 = getelementptr inbounds nuw %struct.myobj_ex_data_st, ptr %66, i32 0, i32 0
  %68 = load ptr, ptr %67, align 8, !tbaa !30
  %69 = load ptr, ptr %14, align 8, !tbaa !9
  %70 = getelementptr inbounds nuw %struct.myobj_ex_data_st, ptr %69, i32 0, i32 0
  store ptr %68, ptr %70, align 8, !tbaa !30
  %71 = load ptr, ptr %14, align 8, !tbaa !9
  %72 = getelementptr inbounds nuw %struct.myobj_ex_data_st, ptr %71, i32 0, i32 2
  store i32 1, ptr %72, align 4, !tbaa !23
  %73 = load ptr, ptr %14, align 8, !tbaa !9
  %74 = load ptr, ptr %13, align 8, !tbaa !28
  store ptr %73, ptr %74, align 8, !tbaa !9
  br label %75

75:                                               ; preds = %64, %63
  call void @llvm.lifetime.end.p0(i64 8, ptr %14) #3
  call void @llvm.lifetime.end.p0(i64 8, ptr %13) #3
  ret i32 1
}