; Function Attrs: nounwind uwtable
define internal noundef i32 @exdup2(ptr noundef %0, ptr readnone captures(none) %1, ptr noundef %2, i32 noundef %3, i64 noundef %4, ptr noundef %5) #0 {
  %7 = load i32, ptr @saved_idx2, align 4, !tbaa !8
  %8 = icmp eq i32 %3, %7
  %9 = load i32, ptr @saved_idx3, align 4
  %10 = icmp eq i32 %3, %9
  %11 = select i1 %8, i1 true, i1 %10
  %12 = zext i1 %11 to i32
  %13 = tail call i32 @test_true(ptr noundef nonnull @.str.1, i32 noundef 95, ptr noundef nonnull @.str.23, i32 noundef %12) #2
  %.not = icmp eq i32 %13, 0
  br i1 %.not, label %34, label %14

14:                                               ; preds = %6
  %.b = load i1, ptr @saved_argl, align 8
  %15 = select i1 %.b, i64 21, i64 0
  %16 = tail call i32 @test_long_eq(ptr noundef nonnull @.str.1, i32 noundef 96, ptr noundef nonnull @.str.17, ptr noundef nonnull @.str.18, i64 noundef %4, i64 noundef %15) #2
  %.not14 = icmp eq i32 %16, 0
  br i1 %.not14, label %34, label %17

17:                                               ; preds = %14
  %18 = load ptr, ptr @saved_argp, align 8, !tbaa !4
  %19 = tail call i32 @test_ptr_eq(ptr noundef nonnull @.str.1, i32 noundef 97, ptr noundef nonnull @.str.19, ptr noundef nonnull @.str.20, ptr noundef %5, ptr noundef %18) #2
  %.not15 = icmp eq i32 %19, 0
  br i1 %.not15, label %34, label %20

20:                                               ; preds = %17
  %21 = tail call i32 @test_ptr(ptr noundef nonnull @.str.1, i32 noundef 98, ptr noundef nonnull @.str.22, ptr noundef %2) #2
  %.not16 = icmp eq i32 %21, 0
  br i1 %.not16, label %34, label %22

22:                                               ; preds = %20
  %23 = load ptr, ptr %2, align 8, !tbaa !21
  %24 = tail call i32 @test_ptr(ptr noundef nonnull @.str.1, i32 noundef 99, ptr noundef nonnull @.str.25, ptr noundef %23) #2
  %.not17 = icmp eq i32 %24, 0
  br i1 %.not17, label %34, label %25

25:                                               ; preds = %22
  %26 = tail call ptr @CRYPTO_get_ex_data(ptr noundef %0, i32 noundef %3) #2
  %27 = tail call i32 @test_ptr(ptr noundef nonnull @.str.1, i32 noundef 100, ptr noundef nonnull @.str.26, ptr noundef %26) #2
  %.not18 = icmp eq i32 %27, 0
  br i1 %.not18, label %34, label %28

28:                                               ; preds = %25
  %29 = getelementptr inbounds nuw i8, ptr %26, i64 8
  %30 = load i32, ptr %29, align 8, !tbaa !20
  %31 = icmp ne i32 %30, 0
  %32 = zext i1 %31 to i32
  %33 = tail call i32 @test_true(ptr noundef nonnull @.str.1, i32 noundef 101, ptr noundef nonnull @.str.27, i32 noundef %32) #2
  %.not19 = icmp eq i32 %33, 0
  br i1 %.not19, label %34, label %35

34:                                               ; preds = %28, %25, %22, %20, %17, %14, %6
  store i1 false, ptr @gbl_result, align 4
  br label %39

35:                                               ; preds = %28
  %36 = load ptr, ptr %2, align 8, !tbaa !21
  %37 = load ptr, ptr %36, align 8, !tbaa !16
  store ptr %37, ptr %26, align 8, !tbaa !16
  %38 = getelementptr inbounds nuw i8, ptr %26, i64 12
  store i32 1, ptr %38, align 4, !tbaa !19
  store ptr %26, ptr %2, align 8, !tbaa !21
  br label %39

39:                                               ; preds = %35, %34
  ret i32 1
}